target datalayout = "e-m:e-p270:32:32-p271:32:32-p272:64:64-i64:64-i128:128-f80:128-n8:16:32:64-S128"
target triple = "x86_64-pc-linux-gnu"

%struct.hf_register_info = type { ptr, %struct._header_field_info }
%struct._header_field_info = type { ptr, ptr, i32, i32, ptr, i64, ptr, i32, i32, i32, i32, ptr }

@proto_bfd = internal global i32 0, align 4
@proto_register_bfd.hf_echo = internal global [1 x %struct.hf_register_info] [%struct.hf_register_info { ptr @hf_bfd_echo, %struct._header_field_info { ptr @.str.95, ptr @.str.96, i32 30, i32 0, ptr null, i64 0, ptr @.str.97, i32 -1, i32 0, i32 0, i32 -1, ptr null } }], align 16
@proto_register_bfd.ett = internal global [4 x ptr] [ptr @ett_bfd, ptr @ett_bfd_flags, ptr @ett_bfd_auth, ptr @ett_bfd_echo], align 16
@.str.102 = private unnamed_addr constant [51 x i8] c"Bidirectional Forwarding Detection Control Message\00", align 1
@.str.103 = private unnamed_addr constant [12 x i8] c"BFD Control\00", align 1
@.str.104 = private unnamed_addr constant [4 x i8] c"bfd\00", align 1
@.str.105 = private unnamed_addr constant [47 x i8] c"Bidirectional Forwarding Detection Echo Packet\00", align 1
@.str.106 = private unnamed_addr constant [9 x i8] c"BFD Echo\00", align 1
@.str.107 = private unnamed_addr constant [9 x i8] c"bfd_echo\00", align 1
@proto_bfd_echo = internal global i32 0, align 4
@bfd_control_handle = internal global ptr null, align 8
@bfd_echo_handle = internal global ptr null, align 8

; Function Attrs: null_pointer_is_valid sspstrong uwtable
define hidden void @proto_register_bfd() #0 {
  %1 = alloca ptr, align 8
  call void @llvm.lifetime.start.p0(i64 8, ptr %1) #4
  %2 = call i32 @proto_register_protocol(ptr noundef @.str.102, ptr noundef @.str.103, ptr noundef @.str.104)
  store i32 %2, ptr @proto_bfd, align 4
  %3 = call i32 @proto_register_protocol(ptr noundef @.str.105, ptr noundef @.str.106, ptr noundef @.str.107)
  store i32 %3, ptr @proto_bfd_echo, align 4
  %4 = load i32, ptr @proto_bfd, align 4
  call void @proto_register_field_array(i32 noundef %4, ptr noundef @proto_register_bfd.hf, i32 noundef 38)
  %5 = load i32, ptr @proto_bfd_echo, align 4
  call void @proto_register_field_array(i32 noundef %5, ptr noundef @proto_register_bfd.hf_echo, i32 noundef 1)
  call void @proto_register_subtree_array(ptr noundef @proto_register_bfd.ett, i32 noundef 4)
  %6 = load i32, ptr @proto_bfd, align 4
  %7 = call ptr @expert_register_protocol(i32 noundef %6)
  store ptr %7, ptr %1, align 8
  %8 = load ptr, ptr %1, align 8
  call void @expert_register_field_array(ptr noundef %8, ptr noundef @proto_register_bfd.ei, i32 noundef 2)
  %9 = load i32, ptr @proto_bfd, align 4
  %10 = call ptr @register_dissector(ptr noundef @.str.104, ptr noundef @dissect_bfd_control, i32 noundef %9)
  store ptr %10, ptr @bfd_control_handle, align 8
  %11 = load i32, ptr @proto_bfd_echo, align 4
  %12 = call ptr @register_dissector(ptr noundef @.str.107, ptr noundef @dissect_bfd_echo, i32 noundef %11)
  store ptr %12, ptr @bfd_echo_handle, align 8
  call void @llvm.lifetime.end.p0(i64 8, ptr %1) #4
  ret void
}