; Function Attrs: null_pointer_is_valid sspstrong uwtable
define hidden void @proto_register_bfd() local_unnamed_addr #0 {
  %1 = tail call i32 @proto_register_protocol(ptr noundef nonnull @.str.102, ptr noundef nonnull @.str.103, ptr noundef nonnull @.str.104)
  store i32 %1, ptr @proto_bfd, align 4
  %2 = tail call i32 @proto_register_protocol(ptr noundef nonnull @.str.105, ptr noundef nonnull @.str.106, ptr noundef nonnull @.str.107)
  store i32 %2, ptr @proto_bfd_echo, align 4
  %3 = load i32, ptr @proto_bfd, align 4
  tail call void @proto_register_field_array(i32 noundef %3, ptr noundef nonnull @proto_register_bfd.hf, i32 noundef 38)
  %4 = load i32, ptr @proto_bfd_echo, align 4
  tail call void @proto_register_field_array(i32 noundef %4, ptr noundef nonnull @proto_register_bfd.hf_echo, i32 noundef 1)
  tail call void @proto_register_subtree_array(ptr noundef nonnull @proto_register_bfd.ett, i32 noundef 4)
  %5 = load i32, ptr @proto_bfd, align 4
  %6 = tail call ptr @expert_register_protocol(i32 noundef %5)
  tail call void @expert_register_field_array(ptr noundef %6, ptr noundef nonnull @proto_register_bfd.ei, i32 noundef 2)
  %7 = load i32, ptr @proto_bfd, align 4
  %8 = tail call ptr @register_dissector(ptr noundef nonnull @.str.104, ptr noundef nonnull @dissect_bfd_control, i32 noundef %7)
  store ptr %8, ptr @bfd_control_handle, align 8
  %9 = load i32, ptr @proto_bfd_echo, align 4
  %10 = tail call ptr @register_dissector(ptr noundef nonnull @.str.107, ptr noundef nonnull @dissect_bfd_echo, i32 noundef %9)
  store ptr %10, ptr @bfd_echo_handle, align 8
  ret void
}